; Function Attrs: mustprogress nofree norecurse nosync nounwind willreturn memory(argmem: write) uwtable
define dso_local void @_ZN20cmParseMumpsCoverageC2ER31cmCTestCoverageHandlerContainerP7cmCTest(ptr noundef nonnull align 8 dereferenceable(72) %0, ptr noundef nonnull align 8 dereferenceable(129) %1, ptr noundef %2) unnamed_addr #3 align 2 personality ptr @__gxx_personality_v0 {
  store ptr getelementptr inbounds ({ [5 x ptr] }, ptr @_ZTV20cmParseMumpsCoverage, i64 0, i32 0, i64 2), ptr %0, align 8
  %4 = getelementptr inbounds i8, ptr %0, i64 16
  store i32 0, ptr %4, align 8
  %5 = getelementptr inbounds i8, ptr %0, i64 24
  store ptr null, ptr %5, align 8
  %6 = getelementptr inbounds i8, ptr %0, i64 32
  store ptr %4, ptr %6, align 8
  %7 = getelementptr inbounds i8, ptr %0, i64 40
  store ptr %4, ptr %7, align 8
  %8 = getelementptr inbounds i8, ptr %0, i64 48
  store i64 0, ptr %8, align 8
  %9 = getelementptr inbounds i8, ptr %0, i64 56
  store ptr %1, ptr %9, align 8
  %10 = getelementptr inbounds i8, ptr %0, i64 64
  store ptr %2, ptr %10, align 8
  ret void
}